ARM GAS  /tmp/ccmlKqL9.s 			page 1


   1              		.cpu cortex-m7
   2              		.eabi_attribute 28, 1
   3              		.eabi_attribute 20, 1
   4              		.eabi_attribute 21, 1
   5              		.eabi_attribute 23, 3
   6              		.eabi_attribute 24, 1
   7              		.eabi_attribute 25, 1
   8              		.eabi_attribute 26, 1
   9              		.eabi_attribute 30, 1
  10              		.eabi_attribute 34, 1
  11              		.eabi_attribute 18, 4
  12              		.file	"tim.c"
  13              		.text
  14              	.Ltext0:
  15              		.cfi_sections	.debug_frame
  16              		.section	.text.MX_TIM3_Init,"ax",%progbits
  17              		.align	1
  18              		.global	MX_TIM3_Init
  19              		.arch armv7e-m
  20              		.syntax unified
  21              		.thumb
  22              		.thumb_func
  23              		.fpu fpv5-d16
  25              	MX_TIM3_Init:
  26              	.LFB144:
  27              		.file 1 "Core/Src/tim.c"
   1:Core/Src/tim.c **** /* USER CODE BEGIN Header */
   2:Core/Src/tim.c **** /**
   3:Core/Src/tim.c ****   ******************************************************************************
   4:Core/Src/tim.c ****   * @file    tim.c
   5:Core/Src/tim.c ****   * @brief   This file provides code for the configuration
   6:Core/Src/tim.c ****   *          of the TIM instances.
   7:Core/Src/tim.c ****   ******************************************************************************
   8:Core/Src/tim.c ****   * @attention
   9:Core/Src/tim.c ****   *
  10:Core/Src/tim.c ****   * Copyright (c) 2025 STMicroelectronics.
  11:Core/Src/tim.c ****   * All rights reserved.
  12:Core/Src/tim.c ****   *
  13:Core/Src/tim.c ****   * This software is licensed under terms that can be found in the LICENSE file
  14:Core/Src/tim.c ****   * in the root directory of this software component.
  15:Core/Src/tim.c ****   * If no LICENSE file comes with this software, it is provided AS-IS.
  16:Core/Src/tim.c ****   *
  17:Core/Src/tim.c ****   ******************************************************************************
  18:Core/Src/tim.c ****   */
  19:Core/Src/tim.c **** /* USER CODE END Header */
  20:Core/Src/tim.c **** /* Includes ------------------------------------------------------------------*/
  21:Core/Src/tim.c **** #include "tim.h"
  22:Core/Src/tim.c **** 
  23:Core/Src/tim.c **** /* USER CODE BEGIN 0 */
  24:Core/Src/tim.c **** 
  25:Core/Src/tim.c **** /* USER CODE END 0 */
  26:Core/Src/tim.c **** 
  27:Core/Src/tim.c **** TIM_HandleTypeDef htim3;
  28:Core/Src/tim.c **** TIM_HandleTypeDef htim4;
  29:Core/Src/tim.c **** 
  30:Core/Src/tim.c **** /* TIM3 init function */
  31:Core/Src/tim.c **** void MX_TIM3_Init(void)
ARM GAS  /tmp/ccmlKqL9.s 			page 2


  32:Core/Src/tim.c **** {
  28              		.loc 1 32 1 view -0
  29              		.cfi_startproc
  30              		@ args = 0, pretend = 0, frame = 32
  31              		@ frame_needed = 0, uses_anonymous_args = 0
  32 0000 00B5     		push	{lr}
  33              	.LCFI0:
  34              		.cfi_def_cfa_offset 4
  35              		.cfi_offset 14, -4
  36 0002 89B0     		sub	sp, sp, #36
  37              	.LCFI1:
  38              		.cfi_def_cfa_offset 40
  33:Core/Src/tim.c **** 
  34:Core/Src/tim.c ****   /* USER CODE BEGIN TIM3_Init 0 */
  35:Core/Src/tim.c **** 
  36:Core/Src/tim.c ****   /* USER CODE END TIM3_Init 0 */
  37:Core/Src/tim.c **** 
  38:Core/Src/tim.c ****   TIM_ClockConfigTypeDef sClockSourceConfig = {0};
  39              		.loc 1 38 3 view .LVU1
  40              		.loc 1 38 26 is_stmt 0 view .LVU2
  41 0004 0023     		movs	r3, #0
  42 0006 0493     		str	r3, [sp, #16]
  43 0008 0593     		str	r3, [sp, #20]
  44 000a 0693     		str	r3, [sp, #24]
  45 000c 0793     		str	r3, [sp, #28]
  39:Core/Src/tim.c ****   TIM_MasterConfigTypeDef sMasterConfig = {0};
  46              		.loc 1 39 3 is_stmt 1 view .LVU3
  47              		.loc 1 39 27 is_stmt 0 view .LVU4
  48 000e 0193     		str	r3, [sp, #4]
  49 0010 0293     		str	r3, [sp, #8]
  50 0012 0393     		str	r3, [sp, #12]
  40:Core/Src/tim.c **** 
  41:Core/Src/tim.c ****   /* USER CODE BEGIN TIM3_Init 1 */
  42:Core/Src/tim.c **** 
  43:Core/Src/tim.c ****   /* USER CODE END TIM3_Init 1 */
  44:Core/Src/tim.c ****   htim3.Instance = TIM3;
  51              		.loc 1 44 3 is_stmt 1 view .LVU5
  52              		.loc 1 44 18 is_stmt 0 view .LVU6
  53 0014 1448     		ldr	r0, .L9
  54 0016 154A     		ldr	r2, .L9+4
  55 0018 0260     		str	r2, [r0]
  45:Core/Src/tim.c ****   htim3.Init.Prescaler = 240-1;
  56              		.loc 1 45 3 is_stmt 1 view .LVU7
  57              		.loc 1 45 24 is_stmt 0 view .LVU8
  58 001a EF22     		movs	r2, #239
  59 001c 4260     		str	r2, [r0, #4]
  46:Core/Src/tim.c ****   htim3.Init.CounterMode = TIM_COUNTERMODE_UP;
  60              		.loc 1 46 3 is_stmt 1 view .LVU9
  61              		.loc 1 46 26 is_stmt 0 view .LVU10
  62 001e 8360     		str	r3, [r0, #8]
  47:Core/Src/tim.c ****   htim3.Init.Period = 1000-1;
  63              		.loc 1 47 3 is_stmt 1 view .LVU11
  64              		.loc 1 47 21 is_stmt 0 view .LVU12
  65 0020 40F2E732 		movw	r2, #999
  66 0024 C260     		str	r2, [r0, #12]
  48:Core/Src/tim.c ****   htim3.Init.ClockDivision = TIM_CLOCKDIVISION_DIV1;
  67              		.loc 1 48 3 is_stmt 1 view .LVU13
ARM GAS  /tmp/ccmlKqL9.s 			page 3


  68              		.loc 1 48 28 is_stmt 0 view .LVU14
  69 0026 0361     		str	r3, [r0, #16]
  49:Core/Src/tim.c ****   htim3.Init.AutoReloadPreload = TIM_AUTORELOAD_PRELOAD_DISABLE;
  70              		.loc 1 49 3 is_stmt 1 view .LVU15
  71              		.loc 1 49 32 is_stmt 0 view .LVU16
  72 0028 8361     		str	r3, [r0, #24]
  50:Core/Src/tim.c ****   if (HAL_TIM_Base_Init(&htim3) != HAL_OK)
  73              		.loc 1 50 3 is_stmt 1 view .LVU17
  74              		.loc 1 50 7 is_stmt 0 view .LVU18
  75 002a FFF7FEFF 		bl	HAL_TIM_Base_Init
  76              	.LVL0:
  77              		.loc 1 50 6 view .LVU19
  78 002e 90B9     		cbnz	r0, .L6
  79              	.L2:
  51:Core/Src/tim.c ****   {
  52:Core/Src/tim.c ****     Error_Handler();
  53:Core/Src/tim.c ****   }
  54:Core/Src/tim.c ****   sClockSourceConfig.ClockSource = TIM_CLOCKSOURCE_INTERNAL;
  80              		.loc 1 54 3 is_stmt 1 view .LVU20
  81              		.loc 1 54 34 is_stmt 0 view .LVU21
  82 0030 4FF48053 		mov	r3, #4096
  83 0034 0493     		str	r3, [sp, #16]
  55:Core/Src/tim.c ****   if (HAL_TIM_ConfigClockSource(&htim3, &sClockSourceConfig) != HAL_OK)
  84              		.loc 1 55 3 is_stmt 1 view .LVU22
  85              		.loc 1 55 7 is_stmt 0 view .LVU23
  86 0036 04A9     		add	r1, sp, #16
  87 0038 0B48     		ldr	r0, .L9
  88 003a FFF7FEFF 		bl	HAL_TIM_ConfigClockSource
  89              	.LVL1:
  90              		.loc 1 55 6 view .LVU24
  91 003e 68B9     		cbnz	r0, .L7
  92              	.L3:
  56:Core/Src/tim.c ****   {
  57:Core/Src/tim.c ****     Error_Handler();
  58:Core/Src/tim.c ****   }
  59:Core/Src/tim.c ****   sMasterConfig.MasterOutputTrigger = TIM_TRGO_RESET;
  93              		.loc 1 59 3 is_stmt 1 view .LVU25
  94              		.loc 1 59 37 is_stmt 0 view .LVU26
  95 0040 0023     		movs	r3, #0
  96 0042 0193     		str	r3, [sp, #4]
  60:Core/Src/tim.c ****   sMasterConfig.MasterSlaveMode = TIM_MASTERSLAVEMODE_DISABLE;
  97              		.loc 1 60 3 is_stmt 1 view .LVU27
  98              		.loc 1 60 33 is_stmt 0 view .LVU28
  99 0044 0393     		str	r3, [sp, #12]
  61:Core/Src/tim.c ****   if (HAL_TIMEx_MasterConfigSynchronization(&htim3, &sMasterConfig) != HAL_OK)
 100              		.loc 1 61 3 is_stmt 1 view .LVU29
 101              		.loc 1 61 7 is_stmt 0 view .LVU30
 102 0046 01A9     		add	r1, sp, #4
 103 0048 0748     		ldr	r0, .L9
 104 004a FFF7FEFF 		bl	HAL_TIMEx_MasterConfigSynchronization
 105              	.LVL2:
 106              		.loc 1 61 6 view .LVU31
 107 004e 40B9     		cbnz	r0, .L8
 108              	.L1:
  62:Core/Src/tim.c ****   {
  63:Core/Src/tim.c ****     Error_Handler();
  64:Core/Src/tim.c ****   }
ARM GAS  /tmp/ccmlKqL9.s 			page 4


  65:Core/Src/tim.c ****   /* USER CODE BEGIN TIM3_Init 2 */
  66:Core/Src/tim.c **** 
  67:Core/Src/tim.c ****   /* USER CODE END TIM3_Init 2 */
  68:Core/Src/tim.c **** 
  69:Core/Src/tim.c **** }
 109              		.loc 1 69 1 view .LVU32
 110 0050 09B0     		add	sp, sp, #36
 111              	.LCFI2:
 112              		.cfi_remember_state
 113              		.cfi_def_cfa_offset 4
 114              		@ sp needed
 115 0052 5DF804FB 		ldr	pc, [sp], #4
 116              	.L6:
 117              	.LCFI3:
 118              		.cfi_restore_state
  52:Core/Src/tim.c ****   }
 119              		.loc 1 52 5 is_stmt 1 view .LVU33
 120 0056 FFF7FEFF 		bl	Error_Handler
 121              	.LVL3:
 122 005a E9E7     		b	.L2
 123              	.L7:
  57:Core/Src/tim.c ****   }
 124              		.loc 1 57 5 view .LVU34
 125 005c FFF7FEFF 		bl	Error_Handler
 126              	.LVL4:
 127 0060 EEE7     		b	.L3
 128              	.L8:
  63:Core/Src/tim.c ****   }
 129              		.loc 1 63 5 view .LVU35
 130 0062 FFF7FEFF 		bl	Error_Handler
 131              	.LVL5:
 132              		.loc 1 69 1 is_stmt 0 view .LVU36
 133 0066 F3E7     		b	.L1
 134              	.L10:
 135              		.align	2
 136              	.L9:
 137 0068 00000000 		.word	.LANCHOR0
 138 006c 00040040 		.word	1073742848
 139              		.cfi_endproc
 140              	.LFE144:
 142              		.section	.text.MX_TIM4_Init,"ax",%progbits
 143              		.align	1
 144              		.global	MX_TIM4_Init
 145              		.syntax unified
 146              		.thumb
 147              		.thumb_func
 148              		.fpu fpv5-d16
 150              	MX_TIM4_Init:
 151              	.LFB145:
  70:Core/Src/tim.c **** /* TIM4 init function */
  71:Core/Src/tim.c **** void MX_TIM4_Init(void)
  72:Core/Src/tim.c **** {
 152              		.loc 1 72 1 is_stmt 1 view -0
 153              		.cfi_startproc
 154              		@ args = 0, pretend = 0, frame = 32
 155              		@ frame_needed = 0, uses_anonymous_args = 0
 156 0000 00B5     		push	{lr}
ARM GAS  /tmp/ccmlKqL9.s 			page 5


 157              	.LCFI4:
 158              		.cfi_def_cfa_offset 4
 159              		.cfi_offset 14, -4
 160 0002 89B0     		sub	sp, sp, #36
 161              	.LCFI5:
 162              		.cfi_def_cfa_offset 40
  73:Core/Src/tim.c **** 
  74:Core/Src/tim.c ****   /* USER CODE BEGIN TIM4_Init 0 */
  75:Core/Src/tim.c **** 
  76:Core/Src/tim.c ****   /* USER CODE END TIM4_Init 0 */
  77:Core/Src/tim.c **** 
  78:Core/Src/tim.c ****   TIM_ClockConfigTypeDef sClockSourceConfig = {0};
 163              		.loc 1 78 3 view .LVU38
 164              		.loc 1 78 26 is_stmt 0 view .LVU39
 165 0004 0023     		movs	r3, #0
 166 0006 0493     		str	r3, [sp, #16]
 167 0008 0593     		str	r3, [sp, #20]
 168 000a 0693     		str	r3, [sp, #24]
 169 000c 0793     		str	r3, [sp, #28]
  79:Core/Src/tim.c ****   TIM_MasterConfigTypeDef sMasterConfig = {0};
 170              		.loc 1 79 3 is_stmt 1 view .LVU40
 171              		.loc 1 79 27 is_stmt 0 view .LVU41
 172 000e 0193     		str	r3, [sp, #4]
 173 0010 0293     		str	r3, [sp, #8]
 174 0012 0393     		str	r3, [sp, #12]
  80:Core/Src/tim.c **** 
  81:Core/Src/tim.c ****   /* USER CODE BEGIN TIM4_Init 1 */
  82:Core/Src/tim.c **** 
  83:Core/Src/tim.c ****   /* USER CODE END TIM4_Init 1 */
  84:Core/Src/tim.c ****   htim4.Instance = TIM4;
 175              		.loc 1 84 3 is_stmt 1 view .LVU42
 176              		.loc 1 84 18 is_stmt 0 view .LVU43
 177 0014 1448     		ldr	r0, .L19
 178 0016 154A     		ldr	r2, .L19+4
 179 0018 0260     		str	r2, [r0]
  85:Core/Src/tim.c ****   htim4.Init.Prescaler = 240-1;
 180              		.loc 1 85 3 is_stmt 1 view .LVU44
 181              		.loc 1 85 24 is_stmt 0 view .LVU45
 182 001a EF22     		movs	r2, #239
 183 001c 4260     		str	r2, [r0, #4]
  86:Core/Src/tim.c ****   htim4.Init.CounterMode = TIM_COUNTERMODE_UP;
 184              		.loc 1 86 3 is_stmt 1 view .LVU46
 185              		.loc 1 86 26 is_stmt 0 view .LVU47
 186 001e 8360     		str	r3, [r0, #8]
  87:Core/Src/tim.c ****   htim4.Init.Period = 1000-1;
 187              		.loc 1 87 3 is_stmt 1 view .LVU48
 188              		.loc 1 87 21 is_stmt 0 view .LVU49
 189 0020 40F2E732 		movw	r2, #999
 190 0024 C260     		str	r2, [r0, #12]
  88:Core/Src/tim.c ****   htim4.Init.ClockDivision = TIM_CLOCKDIVISION_DIV1;
 191              		.loc 1 88 3 is_stmt 1 view .LVU50
 192              		.loc 1 88 28 is_stmt 0 view .LVU51
 193 0026 0361     		str	r3, [r0, #16]
  89:Core/Src/tim.c ****   htim4.Init.AutoReloadPreload = TIM_AUTORELOAD_PRELOAD_DISABLE;
 194              		.loc 1 89 3 is_stmt 1 view .LVU52
 195              		.loc 1 89 32 is_stmt 0 view .LVU53
 196 0028 8361     		str	r3, [r0, #24]
ARM GAS  /tmp/ccmlKqL9.s 			page 6


  90:Core/Src/tim.c ****   if (HAL_TIM_Base_Init(&htim4) != HAL_OK)
 197              		.loc 1 90 3 is_stmt 1 view .LVU54
 198              		.loc 1 90 7 is_stmt 0 view .LVU55
 199 002a FFF7FEFF 		bl	HAL_TIM_Base_Init
 200              	.LVL6:
 201              		.loc 1 90 6 view .LVU56
 202 002e 90B9     		cbnz	r0, .L16
 203              	.L12:
  91:Core/Src/tim.c ****   {
  92:Core/Src/tim.c ****     Error_Handler();
  93:Core/Src/tim.c ****   }
  94:Core/Src/tim.c ****   sClockSourceConfig.ClockSource = TIM_CLOCKSOURCE_INTERNAL;
 204              		.loc 1 94 3 is_stmt 1 view .LVU57
 205              		.loc 1 94 34 is_stmt 0 view .LVU58
 206 0030 4FF48053 		mov	r3, #4096
 207 0034 0493     		str	r3, [sp, #16]
  95:Core/Src/tim.c ****   if (HAL_TIM_ConfigClockSource(&htim4, &sClockSourceConfig) != HAL_OK)
 208              		.loc 1 95 3 is_stmt 1 view .LVU59
 209              		.loc 1 95 7 is_stmt 0 view .LVU60
 210 0036 04A9     		add	r1, sp, #16
 211 0038 0B48     		ldr	r0, .L19
 212 003a FFF7FEFF 		bl	HAL_TIM_ConfigClockSource
 213              	.LVL7:
 214              		.loc 1 95 6 view .LVU61
 215 003e 68B9     		cbnz	r0, .L17
 216              	.L13:
  96:Core/Src/tim.c ****   {
  97:Core/Src/tim.c ****     Error_Handler();
  98:Core/Src/tim.c ****   }
  99:Core/Src/tim.c ****   sMasterConfig.MasterOutputTrigger = TIM_TRGO_RESET;
 217              		.loc 1 99 3 is_stmt 1 view .LVU62
 218              		.loc 1 99 37 is_stmt 0 view .LVU63
 219 0040 0023     		movs	r3, #0
 220 0042 0193     		str	r3, [sp, #4]
 100:Core/Src/tim.c ****   sMasterConfig.MasterSlaveMode = TIM_MASTERSLAVEMODE_DISABLE;
 221              		.loc 1 100 3 is_stmt 1 view .LVU64
 222              		.loc 1 100 33 is_stmt 0 view .LVU65
 223 0044 0393     		str	r3, [sp, #12]
 101:Core/Src/tim.c ****   if (HAL_TIMEx_MasterConfigSynchronization(&htim4, &sMasterConfig) != HAL_OK)
 224              		.loc 1 101 3 is_stmt 1 view .LVU66
 225              		.loc 1 101 7 is_stmt 0 view .LVU67
 226 0046 01A9     		add	r1, sp, #4
 227 0048 0748     		ldr	r0, .L19
 228 004a FFF7FEFF 		bl	HAL_TIMEx_MasterConfigSynchronization
 229              	.LVL8:
 230              		.loc 1 101 6 view .LVU68
 231 004e 40B9     		cbnz	r0, .L18
 232              	.L11:
 102:Core/Src/tim.c ****   {
 103:Core/Src/tim.c ****     Error_Handler();
 104:Core/Src/tim.c ****   }
 105:Core/Src/tim.c ****   /* USER CODE BEGIN TIM4_Init 2 */
 106:Core/Src/tim.c **** 
 107:Core/Src/tim.c ****   /* USER CODE END TIM4_Init 2 */
 108:Core/Src/tim.c **** 
 109:Core/Src/tim.c **** }
 233              		.loc 1 109 1 view .LVU69
ARM GAS  /tmp/ccmlKqL9.s 			page 7


 234 0050 09B0     		add	sp, sp, #36
 235              	.LCFI6:
 236              		.cfi_remember_state
 237              		.cfi_def_cfa_offset 4
 238              		@ sp needed
 239 0052 5DF804FB 		ldr	pc, [sp], #4
 240              	.L16:
 241              	.LCFI7:
 242              		.cfi_restore_state
  92:Core/Src/tim.c ****   }
 243              		.loc 1 92 5 is_stmt 1 view .LVU70
 244 0056 FFF7FEFF 		bl	Error_Handler
 245              	.LVL9:
 246 005a E9E7     		b	.L12
 247              	.L17:
  97:Core/Src/tim.c ****   }
 248              		.loc 1 97 5 view .LVU71
 249 005c FFF7FEFF 		bl	Error_Handler
 250              	.LVL10:
 251 0060 EEE7     		b	.L13
 252              	.L18:
 103:Core/Src/tim.c ****   }
 253              		.loc 1 103 5 view .LVU72
 254 0062 FFF7FEFF 		bl	Error_Handler
 255              	.LVL11:
 256              		.loc 1 109 1 is_stmt 0 view .LVU73
 257 0066 F3E7     		b	.L11
 258              	.L20:
 259              		.align	2
 260              	.L19:
 261 0068 00000000 		.word	.LANCHOR1
 262 006c 00080040 		.word	1073743872
 263              		.cfi_endproc
 264              	.LFE145:
 266              		.section	.text.HAL_TIM_Base_MspInit,"ax",%progbits
 267              		.align	1
 268              		.global	HAL_TIM_Base_MspInit
 269              		.syntax unified
 270              		.thumb
 271              		.thumb_func
 272              		.fpu fpv5-d16
 274              	HAL_TIM_Base_MspInit:
 275              	.LVL12:
 276              	.LFB146:
 110:Core/Src/tim.c **** 
 111:Core/Src/tim.c **** void HAL_TIM_Base_MspInit(TIM_HandleTypeDef* tim_baseHandle)
 112:Core/Src/tim.c **** {
 277              		.loc 1 112 1 is_stmt 1 view -0
 278              		.cfi_startproc
 279              		@ args = 0, pretend = 0, frame = 8
 280              		@ frame_needed = 0, uses_anonymous_args = 0
 281              		.loc 1 112 1 is_stmt 0 view .LVU75
 282 0000 00B5     		push	{lr}
 283              	.LCFI8:
 284              		.cfi_def_cfa_offset 4
 285              		.cfi_offset 14, -4
 286 0002 83B0     		sub	sp, sp, #12
ARM GAS  /tmp/ccmlKqL9.s 			page 8


 287              	.LCFI9:
 288              		.cfi_def_cfa_offset 16
 113:Core/Src/tim.c **** 
 114:Core/Src/tim.c ****   if(tim_baseHandle->Instance==TIM3)
 289              		.loc 1 114 3 is_stmt 1 view .LVU76
 290              		.loc 1 114 20 is_stmt 0 view .LVU77
 291 0004 0368     		ldr	r3, [r0]
 292              		.loc 1 114 5 view .LVU78
 293 0006 1A4A     		ldr	r2, .L27
 294 0008 9342     		cmp	r3, r2
 295 000a 05D0     		beq	.L25
 115:Core/Src/tim.c ****   {
 116:Core/Src/tim.c ****   /* USER CODE BEGIN TIM3_MspInit 0 */
 117:Core/Src/tim.c **** 
 118:Core/Src/tim.c ****   /* USER CODE END TIM3_MspInit 0 */
 119:Core/Src/tim.c ****     /* TIM3 clock enable */
 120:Core/Src/tim.c ****     __HAL_RCC_TIM3_CLK_ENABLE();
 121:Core/Src/tim.c **** 
 122:Core/Src/tim.c ****     /* TIM3 interrupt Init */
 123:Core/Src/tim.c ****     HAL_NVIC_SetPriority(TIM3_IRQn, 5, 0);
 124:Core/Src/tim.c ****     HAL_NVIC_EnableIRQ(TIM3_IRQn);
 125:Core/Src/tim.c ****   /* USER CODE BEGIN TIM3_MspInit 1 */
 126:Core/Src/tim.c **** 
 127:Core/Src/tim.c ****   /* USER CODE END TIM3_MspInit 1 */
 128:Core/Src/tim.c ****   }
 129:Core/Src/tim.c ****   else if(tim_baseHandle->Instance==TIM4)
 296              		.loc 1 129 8 is_stmt 1 view .LVU79
 297              		.loc 1 129 10 is_stmt 0 view .LVU80
 298 000c 194A     		ldr	r2, .L27+4
 299 000e 9342     		cmp	r3, r2
 300 0010 18D0     		beq	.L26
 301              	.LVL13:
 302              	.L21:
 130:Core/Src/tim.c ****   {
 131:Core/Src/tim.c ****   /* USER CODE BEGIN TIM4_MspInit 0 */
 132:Core/Src/tim.c **** 
 133:Core/Src/tim.c ****   /* USER CODE END TIM4_MspInit 0 */
 134:Core/Src/tim.c ****     /* TIM4 clock enable */
 135:Core/Src/tim.c ****     __HAL_RCC_TIM4_CLK_ENABLE();
 136:Core/Src/tim.c **** 
 137:Core/Src/tim.c ****     /* TIM4 interrupt Init */
 138:Core/Src/tim.c ****     HAL_NVIC_SetPriority(TIM4_IRQn, 5, 0);
 139:Core/Src/tim.c ****     HAL_NVIC_EnableIRQ(TIM4_IRQn);
 140:Core/Src/tim.c ****   /* USER CODE BEGIN TIM4_MspInit 1 */
 141:Core/Src/tim.c **** 
 142:Core/Src/tim.c ****   /* USER CODE END TIM4_MspInit 1 */
 143:Core/Src/tim.c ****   }
 144:Core/Src/tim.c **** }
 303              		.loc 1 144 1 view .LVU81
 304 0012 03B0     		add	sp, sp, #12
 305              	.LCFI10:
 306              		.cfi_remember_state
 307              		.cfi_def_cfa_offset 4
 308              		@ sp needed
 309 0014 5DF804FB 		ldr	pc, [sp], #4
 310              	.LVL14:
 311              	.L25:
ARM GAS  /tmp/ccmlKqL9.s 			page 9


 312              	.LCFI11:
 313              		.cfi_restore_state
 120:Core/Src/tim.c **** 
 314              		.loc 1 120 5 is_stmt 1 view .LVU82
 315              	.LBB2:
 120:Core/Src/tim.c **** 
 316              		.loc 1 120 5 view .LVU83
 120:Core/Src/tim.c **** 
 317              		.loc 1 120 5 view .LVU84
 318 0018 174B     		ldr	r3, .L27+8
 319 001a D3F8E820 		ldr	r2, [r3, #232]
 320 001e 42F00202 		orr	r2, r2, #2
 321 0022 C3F8E820 		str	r2, [r3, #232]
 120:Core/Src/tim.c **** 
 322              		.loc 1 120 5 view .LVU85
 323 0026 D3F8E830 		ldr	r3, [r3, #232]
 324 002a 03F00203 		and	r3, r3, #2
 325 002e 0093     		str	r3, [sp]
 120:Core/Src/tim.c **** 
 326              		.loc 1 120 5 view .LVU86
 327 0030 009B     		ldr	r3, [sp]
 328              	.LBE2:
 120:Core/Src/tim.c **** 
 329              		.loc 1 120 5 view .LVU87
 123:Core/Src/tim.c ****     HAL_NVIC_EnableIRQ(TIM3_IRQn);
 330              		.loc 1 123 5 view .LVU88
 331 0032 0022     		movs	r2, #0
 332 0034 0521     		movs	r1, #5
 333 0036 1D20     		movs	r0, #29
 334              	.LVL15:
 123:Core/Src/tim.c ****     HAL_NVIC_EnableIRQ(TIM3_IRQn);
 335              		.loc 1 123 5 is_stmt 0 view .LVU89
 336 0038 FFF7FEFF 		bl	HAL_NVIC_SetPriority
 337              	.LVL16:
 124:Core/Src/tim.c ****   /* USER CODE BEGIN TIM3_MspInit 1 */
 338              		.loc 1 124 5 is_stmt 1 view .LVU90
 339 003c 1D20     		movs	r0, #29
 340 003e FFF7FEFF 		bl	HAL_NVIC_EnableIRQ
 341              	.LVL17:
 342 0042 E6E7     		b	.L21
 343              	.LVL18:
 344              	.L26:
 135:Core/Src/tim.c **** 
 345              		.loc 1 135 5 view .LVU91
 346              	.LBB3:
 135:Core/Src/tim.c **** 
 347              		.loc 1 135 5 view .LVU92
 135:Core/Src/tim.c **** 
 348              		.loc 1 135 5 view .LVU93
 349 0044 0C4B     		ldr	r3, .L27+8
 350 0046 D3F8E820 		ldr	r2, [r3, #232]
 351 004a 42F00402 		orr	r2, r2, #4
 352 004e C3F8E820 		str	r2, [r3, #232]
 135:Core/Src/tim.c **** 
 353              		.loc 1 135 5 view .LVU94
 354 0052 D3F8E830 		ldr	r3, [r3, #232]
 355 0056 03F00403 		and	r3, r3, #4
ARM GAS  /tmp/ccmlKqL9.s 			page 10


 356 005a 0193     		str	r3, [sp, #4]
 135:Core/Src/tim.c **** 
 357              		.loc 1 135 5 view .LVU95
 358 005c 019B     		ldr	r3, [sp, #4]
 359              	.LBE3:
 135:Core/Src/tim.c **** 
 360              		.loc 1 135 5 view .LVU96
 138:Core/Src/tim.c ****     HAL_NVIC_EnableIRQ(TIM4_IRQn);
 361              		.loc 1 138 5 view .LVU97
 362 005e 0022     		movs	r2, #0
 363 0060 0521     		movs	r1, #5
 364 0062 1E20     		movs	r0, #30
 365              	.LVL19:
 138:Core/Src/tim.c ****     HAL_NVIC_EnableIRQ(TIM4_IRQn);
 366              		.loc 1 138 5 is_stmt 0 view .LVU98
 367 0064 FFF7FEFF 		bl	HAL_NVIC_SetPriority
 368              	.LVL20:
 139:Core/Src/tim.c ****   /* USER CODE BEGIN TIM4_MspInit 1 */
 369              		.loc 1 139 5 is_stmt 1 view .LVU99
 370 0068 1E20     		movs	r0, #30
 371 006a FFF7FEFF 		bl	HAL_NVIC_EnableIRQ
 372              	.LVL21:
 373              		.loc 1 144 1 is_stmt 0 view .LVU100
 374 006e D0E7     		b	.L21
 375              	.L28:
 376              		.align	2
 377              	.L27:
 378 0070 00040040 		.word	1073742848
 379 0074 00080040 		.word	1073743872
 380 0078 00440258 		.word	1476543488
 381              		.cfi_endproc
 382              	.LFE146:
 384              		.section	.text.HAL_TIM_Base_MspDeInit,"ax",%progbits
 385              		.align	1
 386              		.global	HAL_TIM_Base_MspDeInit
 387              		.syntax unified
 388              		.thumb
 389              		.thumb_func
 390              		.fpu fpv5-d16
 392              	HAL_TIM_Base_MspDeInit:
 393              	.LVL22:
 394              	.LFB147:
 145:Core/Src/tim.c **** 
 146:Core/Src/tim.c **** void HAL_TIM_Base_MspDeInit(TIM_HandleTypeDef* tim_baseHandle)
 147:Core/Src/tim.c **** {
 395              		.loc 1 147 1 is_stmt 1 view -0
 396              		.cfi_startproc
 397              		@ args = 0, pretend = 0, frame = 0
 398              		@ frame_needed = 0, uses_anonymous_args = 0
 399              		.loc 1 147 1 is_stmt 0 view .LVU102
 400 0000 08B5     		push	{r3, lr}
 401              	.LCFI12:
 402              		.cfi_def_cfa_offset 8
 403              		.cfi_offset 3, -8
 404              		.cfi_offset 14, -4
 148:Core/Src/tim.c **** 
 149:Core/Src/tim.c ****   if(tim_baseHandle->Instance==TIM3)
ARM GAS  /tmp/ccmlKqL9.s 			page 11


 405              		.loc 1 149 3 is_stmt 1 view .LVU103
 406              		.loc 1 149 20 is_stmt 0 view .LVU104
 407 0002 0368     		ldr	r3, [r0]
 408              		.loc 1 149 5 view .LVU105
 409 0004 0E4A     		ldr	r2, .L35
 410 0006 9342     		cmp	r3, r2
 411 0008 03D0     		beq	.L33
 150:Core/Src/tim.c ****   {
 151:Core/Src/tim.c ****   /* USER CODE BEGIN TIM3_MspDeInit 0 */
 152:Core/Src/tim.c **** 
 153:Core/Src/tim.c ****   /* USER CODE END TIM3_MspDeInit 0 */
 154:Core/Src/tim.c ****     /* Peripheral clock disable */
 155:Core/Src/tim.c ****     __HAL_RCC_TIM3_CLK_DISABLE();
 156:Core/Src/tim.c **** 
 157:Core/Src/tim.c ****     /* TIM3 interrupt Deinit */
 158:Core/Src/tim.c ****     HAL_NVIC_DisableIRQ(TIM3_IRQn);
 159:Core/Src/tim.c ****   /* USER CODE BEGIN TIM3_MspDeInit 1 */
 160:Core/Src/tim.c **** 
 161:Core/Src/tim.c ****   /* USER CODE END TIM3_MspDeInit 1 */
 162:Core/Src/tim.c ****   }
 163:Core/Src/tim.c ****   else if(tim_baseHandle->Instance==TIM4)
 412              		.loc 1 163 8 is_stmt 1 view .LVU106
 413              		.loc 1 163 10 is_stmt 0 view .LVU107
 414 000a 0E4A     		ldr	r2, .L35+4
 415 000c 9342     		cmp	r3, r2
 416 000e 0BD0     		beq	.L34
 417              	.LVL23:
 418              	.L29:
 164:Core/Src/tim.c ****   {
 165:Core/Src/tim.c ****   /* USER CODE BEGIN TIM4_MspDeInit 0 */
 166:Core/Src/tim.c **** 
 167:Core/Src/tim.c ****   /* USER CODE END TIM4_MspDeInit 0 */
 168:Core/Src/tim.c ****     /* Peripheral clock disable */
 169:Core/Src/tim.c ****     __HAL_RCC_TIM4_CLK_DISABLE();
 170:Core/Src/tim.c **** 
 171:Core/Src/tim.c ****     /* TIM4 interrupt Deinit */
 172:Core/Src/tim.c ****     HAL_NVIC_DisableIRQ(TIM4_IRQn);
 173:Core/Src/tim.c ****   /* USER CODE BEGIN TIM4_MspDeInit 1 */
 174:Core/Src/tim.c **** 
 175:Core/Src/tim.c ****   /* USER CODE END TIM4_MspDeInit 1 */
 176:Core/Src/tim.c ****   }
 177:Core/Src/tim.c **** }
 419              		.loc 1 177 1 view .LVU108
 420 0010 08BD     		pop	{r3, pc}
 421              	.LVL24:
 422              	.L33:
 155:Core/Src/tim.c **** 
 423              		.loc 1 155 5 is_stmt 1 view .LVU109
 424 0012 0D4A     		ldr	r2, .L35+8
 425 0014 D2F8E830 		ldr	r3, [r2, #232]
 426 0018 23F00203 		bic	r3, r3, #2
 427 001c C2F8E830 		str	r3, [r2, #232]
 158:Core/Src/tim.c ****   /* USER CODE BEGIN TIM3_MspDeInit 1 */
 428              		.loc 1 158 5 view .LVU110
 429 0020 1D20     		movs	r0, #29
 430              	.LVL25:
 158:Core/Src/tim.c ****   /* USER CODE BEGIN TIM3_MspDeInit 1 */
ARM GAS  /tmp/ccmlKqL9.s 			page 12


 431              		.loc 1 158 5 is_stmt 0 view .LVU111
 432 0022 FFF7FEFF 		bl	HAL_NVIC_DisableIRQ
 433              	.LVL26:
 434 0026 F3E7     		b	.L29
 435              	.LVL27:
 436              	.L34:
 169:Core/Src/tim.c **** 
 437              		.loc 1 169 5 is_stmt 1 view .LVU112
 438 0028 074A     		ldr	r2, .L35+8
 439 002a D2F8E830 		ldr	r3, [r2, #232]
 440 002e 23F00403 		bic	r3, r3, #4
 441 0032 C2F8E830 		str	r3, [r2, #232]
 172:Core/Src/tim.c ****   /* USER CODE BEGIN TIM4_MspDeInit 1 */
 442              		.loc 1 172 5 view .LVU113
 443 0036 1E20     		movs	r0, #30
 444              	.LVL28:
 172:Core/Src/tim.c ****   /* USER CODE BEGIN TIM4_MspDeInit 1 */
 445              		.loc 1 172 5 is_stmt 0 view .LVU114
 446 0038 FFF7FEFF 		bl	HAL_NVIC_DisableIRQ
 447              	.LVL29:
 448              		.loc 1 177 1 view .LVU115
 449 003c E8E7     		b	.L29
 450              	.L36:
 451 003e 00BF     		.align	2
 452              	.L35:
 453 0040 00040040 		.word	1073742848
 454 0044 00080040 		.word	1073743872
 455 0048 00440258 		.word	1476543488
 456              		.cfi_endproc
 457              	.LFE147:
 459              		.global	htim4
 460              		.global	htim3
 461              		.section	.bss.htim3,"aw",%nobits
 462              		.align	2
 463              		.set	.LANCHOR0,. + 0
 466              	htim3:
 467 0000 00000000 		.space	76
 467      00000000 
 467      00000000 
 467      00000000 
 467      00000000 
 468              		.section	.bss.htim4,"aw",%nobits
 469              		.align	2
 470              		.set	.LANCHOR1,. + 0
 473              	htim4:
 474 0000 00000000 		.space	76
 474      00000000 
 474      00000000 
 474      00000000 
 474      00000000 
 475              		.text
 476              	.Letext0:
 477              		.file 2 "/usr/lib/gcc/arm-none-eabi/10.3.1/include/stdint.h"
 478              		.file 3 "Drivers/CMSIS/Device/ST/STM32H7xx/Include/stm32h723xx.h"
 479              		.file 4 "Drivers/STM32H7xx_HAL_Driver/Inc/stm32h7xx_hal_def.h"
 480              		.file 5 "Drivers/STM32H7xx_HAL_Driver/Inc/stm32h7xx_hal_dma.h"
 481              		.file 6 "Drivers/STM32H7xx_HAL_Driver/Inc/stm32h7xx_hal_tim.h"
ARM GAS  /tmp/ccmlKqL9.s 			page 13


 482              		.file 7 "Core/Inc/tim.h"
 483              		.file 8 "Drivers/STM32H7xx_HAL_Driver/Inc/stm32h7xx_hal_cortex.h"
 484              		.file 9 "Drivers/STM32H7xx_HAL_Driver/Inc/stm32h7xx_hal_tim_ex.h"
 485              		.file 10 "Core/Inc/main.h"
ARM GAS  /tmp/ccmlKqL9.s 			page 14

